(dp0
Vengine
p1
S'pdflatex'
p2
sVpackages
p3
c__builtin__
set
p4
((lp5
Vhyperref
p6
aVgensymb
p7
aVmathpazo
p8
aVsiunitx
p9
aVfloat
p10
aVmultirow
p11
aVmicrotype
p12
aVfontenc
p13
aVgraphics
p14
aVtocbibind
p15
aVcaption
p16
aVgraphicx
p17
aVamssymb
p18
atp19
Rp20
sVfiles_with_guttermarks
p21
g4
((lp22
V/Users/matheson/Dropbox/School/Summer 2017/CMPT 318/Project/csec-project/report/report.tex
p23
aS'report.tex'
p24
atp25
Rp26
sVsynctex
p27
I01
s.